(lp0
(S'open_gripper'
p1
S'base_link'
p2
S'blah'
p3
tp4
a(ccopy_reg
_reconstructor
p5
(cgeometry_msgs.msg._Pose
Pose
p6
c__builtin__
object
p7
Ntp8
Rp9
(lp10
(lp11
F0.6377353023312055
aF-0.18212235027996682
aF0.9807081963524913
aa(lp12
F-0.06398476269988056
aF-0.004227015448297556
aF0.572708922259924
aF-0.8172469472849173
aabS'base_link'
p13
I00
tp14
a(g5
(g6
g7
Ntp15
Rp16
(lp17
(lp18
F0.31197804790614786
aF-0.3311861731746814
aF0.9930668129975855
aa(lp19
F0.022029471639419988
aF0.02304465201433692
aF0.939033182758159
aF-0.3423453345262764
aabg13
I00
tp20
a(g5
(g6
g7
Ntp21
Rp22
(lp23
(lp24
F0.15635416449048184
aF-0.3313235563284238
aF0.9090941611346424
aa(lp25
F0.020647630331705736
aF0.044631871919404605
aF0.9986848178577611
aF-0.014501929218747822
aabg13
I00
tp26
a(g5
(g6
g7
Ntp27
Rp28
(lp29
(lp30
F0.05087572516211801
aF-0.34796650851842253
aF0.919497625347695
aa(lp31
F0.00014609251253946138
aF-0.02224707860118226
aF0.9988146002403249
aF0.04329480912824665
aabg13
I01
tp32
a(g5
(g6
g7
Ntp33
Rp34
(lp35
(lp36
F-0.007629513750924202
aF-0.32781833932787746
aF0.9152651446364968
aa(lp37
F0.021263024163244614
aF0.002834343942901355
aF-0.9994993603759317
aF-0.023256803433623546
aabg13
I01
tp38
a(g5
(g6
g7
Ntp39
Rp40
(lp41
(lp42
F-0.06677545749032404
aF-0.3354562220221996
aF0.9141435178716906
aa(lp43
F0.01907498506266455
aF0.026061348296594608
aF-0.9981300673980315
aF-0.05189720248552454
aabg13
I01
tp44
a(S'close_gripper'
p45
S'base_link'
p46
S'blah'
p47
tp48
a(g5
(g6
g7
Ntp49
Rp50
(lp51
(lp52
F-0.06737498849483108
aF-0.33898578150461867
aF0.9379345343413179
aa(lp53
F-0.0022471176611174033
aF0.0032151548980240375
aF-0.998778553473262
aF-0.04925458722857046
aabg13
I01
tp54
a(g5
(g6
g7
Ntp55
Rp56
(lp57
(lp58
F-0.07736891337949667
aF-0.40526030494913157
aF0.9427217333420599
aa(lp59
F-0.0031722131929873506
aF0.043679033433333965
aF0.996671605880064
aF0.06875892039759557
aabg13
I01
tp60
a(g5
(g6
g7
Ntp61
Rp62
(lp63
(lp64
F-0.026358086102984984
aF-0.5234357132170446
aF0.9566463337609508
aa(lp65
F0.01031524973633627
aF0.038596789967769836
aF0.9962396336954521
aF-0.07687961811437899
aabg13
I01
tp66
a(g5
(g6
g7
Ntp67
Rp68
(lp69
(lp70
F0.24435728446162563
aF-0.4319362524191268
aF0.9708728966484546
aa(lp71
F0.011311155217607336
aF0.060885385610380295
aF0.9812522514169911
aF-0.18250766196465495
aabg13
I01
tp72
a.