(lp0
(ccopy_reg
_reconstructor
p1
(cgeometry_msgs.msg._Pose
Pose
p2
c__builtin__
object
p3
Ntp4
Rp5
(lp6
(lp7
F0.49799217582285377
aF-0.343366398631819
aF0.9416399648757241
aa(lp8
F-0.019079748636869325
aF0.019792973467564805
aF0.8759771908217533
aF-0.4815684401549753
aabS'base_link'
p9
I00
tp10
a(g1
(g2
g3
Ntp11
Rp12
(lp13
(lp14
F0.09035403494314374
aF-0.47561096267935044
aF0.9579724794475537
aa(lp15
F0.001782388705902961
aF0.04628241598292658
aF0.9987570483603749
aF-0.018415195132187062
aabg9
I00
tp16
a(g1
(g2
g3
Ntp17
Rp18
(lp19
(lp20
F-0.07506482513201762
aF-0.4572455180489464
aF0.9401651737777765
aa(lp21
F-0.0046563145863830835
aF0.03448944796906003
aF0.9989187309459784
aF0.0308247575584622
aabg9
I01
tp22
a(g1
(g2
g3
Ntp23
Rp24
(lp25
(lp26
F-0.07790281704243068
aF-0.41440270536796836
aF0.9377429246691673
aa(lp27
F-0.008519849537938898
aF0.04157813738157455
aF0.9965170028351703
aF0.07178115153812559
aabg9
I01
tp28
a(g1
(g2
g3
Ntp29
Rp30
(lp31
(lp32
F-0.0788557436836968
aF-0.41118991168678176
aF0.9433735493440305
aa(lp33
F-0.0034498838565444616
aF0.046613620229356126
aF0.9961013270498905
aF0.07481587371632531
aabg9
I01
tp34
a(g1
(g2
g3
Ntp35
Rp36
(lp37
(lp38
F-0.07313219095394638
aF-0.34309645883877493
aF0.938098606753853
aa(lp39
F-0.005304573436721665
aF0.029883563575371707
aF-0.9968040316575476
aF-0.07389557902845001
aabg9
I01
tp40
a(S'open_gripper'
p41
S'base_link'
p42
S'blah'
p43
tp44
a(g1
(g2
g3
Ntp45
Rp46
(lp47
(lp48
F-0.004018932590901872
aF-0.327781869901157
aF0.9256169892569173
aa(lp49
F0.005122123868043304
aF0.03601996442228352
aF-0.9989617751786168
aF-0.027417106741679437
aabg9
I01
tp50
a(g1
(g2
g3
Ntp51
Rp52
(lp53
(lp54
F0.0933054644083577
aF-0.3168832353781445
aF0.9323921011444232
aa(lp55
F-0.005275236137380394
aF0.03173891937479618
aF-0.9973552920451453
aF0.06517080872721054
aabg9
I01
tp56
a(g1
(g2
g3
Ntp57
Rp58
(lp59
(lp60
F0.27487968190097467
aF-0.47554287456339694
aF0.9280476311754069
aa(lp61
F0.04249144470210394
aF-0.06368578604465815
aF0.9394568769606714
aF-0.33400505103112454
aabg9
I00
tp62
a.