(lp0
(ccopy_reg
_reconstructor
p1
(cgeometry_msgs.msg._Pose
Pose
p2
c__builtin__
object
p3
Ntp4
Rp5
(lp6
(lp7
F0.7696114468931601
aF0.054739743548048184
aF1.4374853607812852
aa(lp8
F-0.15888096591994347
aF0.24449250854729493
aF-0.2071470907539002
aF-0.9338470617423348
aabS'base_link'
p9
I00
tp10
a(g1
(g2
g3
Ntp11
Rp12
(lp13
(lp14
F0.8487261678924443
aF0.30282366342089834
aF1.1889170090939483
aa(lp15
F-0.011709381943910122
aF0.03576144230206402
aF-0.09829352765484417
aF-0.9944457712917956
aabg9
I00
tp16
a(g1
(g2
g3
Ntp17
Rp18
(lp19
(lp20
F0.8815286543713242
aF0.21115272721589606
aF0.9746267364325931
aa(lp21
F0.0648972843167807
aF-0.05780096989566977
aF-0.041514736072038025
aF-0.9953511526372468
aabg9
I01
tp22
a(g1
(g2
g3
Ntp23
Rp24
(lp25
(lp26
F0.84623070716814
aF0.18015661667016683
aF0.9562585439279204
aa(lp27
F0.0429948285322633
aF-0.0683280599578052
aF-0.09570571563973301
aF-0.9921306047772995
aabg9
I01
tp28
a(g1
(g2
g3
Ntp29
Rp30
(lp31
(lp32
F0.8252867416093462
aF-0.4161202779688541
aF0.9599805618509936
aa(lp33
F0.07074291318805703
aF-0.045147279115001326
aF0.02058424694712735
aF-0.9962597312949063
aabg9
I01
tp34
a(g1
(g2
g3
Ntp35
Rp36
(lp37
(lp38
F0.8774921515778594
aF-0.31695858402389143
aF1.0849835373082404
aa(lp39
F0.1215536881308079
aF0.025980643503518166
aF-0.035301392902805484
aF-0.9916166188220439
aabg9
I00
tp40
a(g1
(g2
g3
Ntp41
Rp42
(lp43
(lp44
F0.8186563282083319
aF0.07544175009744623
aF1.4434567992625436
aa(lp45
F0.2256272570547238
aF0.28056276882876546
aF-0.23608504358010365
aF-0.902574498763885
aabg9
I00
tp46
a.