(lp0
(ccopy_reg
_reconstructor
p1
(cgeometry_msgs.msg._Pose
Pose
p2
c__builtin__
object
p3
Ntp4
Rp5
(lp6
(lp7
F0.7267606832063799
aF0.3707207831548759
aF1.3583617128663088
aa(lp8
F0.8990359755260021
aF0.12308256111893622
aF0.24413916197929747
aF-0.3420249514969038
aabS'base_link'
p9
I00
tp10
a(g1
(g2
g3
Ntp11
Rp12
(lp13
(lp14
F0.7718851318387063
aF0.4200589191053097
aF0.9619852897086798
aa(lp15
F0.9981566692389577
aF0.04578300391507387
aF0.031028135176032073
aF-0.024988698121355915
aabg9
I00
tp16
a(g1
(g2
g3
Ntp17
Rp18
(lp19
(lp20
F0.772922478175281
aF0.38878490225000106
aF0.8958105160128078
aa(lp21
F0.9995520174027358
aF0.025278549350346374
aF-0.0064518685485708575
aF-0.014667407442870758
aabg9
I00
tp22
a(g1
(g2
g3
Ntp23
Rp24
(lp25
(lp26
F0.8234995382065902
aF-0.34938583271619794
aF0.889817685798639
aa(lp27
F0.9743264346723599
aF-0.2173393913095028
aF-0.00019166629034877836
aF0.05874990168413437
aabg9
I01
tp28
a(g1
(g2
g3
Ntp29
Rp30
(lp31
(lp32
F0.8150184885931022
aF-0.38972900573375213
aF1.005518758528536
aa(lp33
F0.962760743288226
aF-0.24361800755106194
aF0.08747751888431864
aF0.07803653804338898
aabS'base_link'
p34
I00
tp35
a(g1
(g2
g3
Ntp36
Rp37
(lp38
(lp39
F0.6846494284725086
aF0.04998180678001505
aF1.42158180120044
aa(lp40
F0.8453507624038747
aF-0.007102744239190236
aF0.5337643307810295
aF0.020670721161590667
aabg34
I00
tp41
a.