(lp0
(ccopy_reg
_reconstructor
p1
(cgeometry_msgs.msg._Pose
Pose
p2
c__builtin__
object
p3
Ntp4
Rp5
(lp6
(lp7
F0.5463603283929507
aF0.00473373406911808
aF1.2289581696824299
aa(lp8
F0.9638489542161645
aF-0.08867884888485074
aF0.1277558811661686
aF-0.21635547149152362
aabS'base_link'
p9
I00
tp10
a(g1
(g2
g3
Ntp11
Rp12
(lp13
(lp14
F0.5399238765517208
aF0.24079533265392095
aF1.0289925102351893
aa(lp15
F0.9887041175489696
aF-0.009246601729693214
aF0.07233695477330929
aF-0.13094286262446825
aabg9
I00
tp16
a(g1
(g2
g3
Ntp17
Rp18
(lp19
(lp20
F0.5144053219117302
aF0.3414182855375882
aF0.9114253415769842
aa(lp21
F0.9857423755857989
aF0.06960052353254453
aF0.05291311116669247
aF-0.14376348202906877
aabg9
I00
tp22
a(g1
(g2
g3
Ntp23
Rp24
(lp25
(lp26
F0.4976682567259701
aF0.34292797615211623
aF0.8782993071301934
aa(lp27
F0.9887632890123109
aF0.07784866502069149
aF0.03384521030662801
aF-0.12304976796139347
aabg9
I00
tp28
a(g1
(g2
g3
Ntp29
Rp30
(lp31
(lp32
F0.5367614363636927
aF-0.45475783214834914
aF0.8830915076474095
aa(lp33
F0.9968103213026246
aF-0.0367453942749546
aF0.04237121706852998
aF-0.05677710197137362
aabg9
I01
tp34
a.