(lp0
(ccopy_reg
_reconstructor
p1
(cgeometry_msgs.msg._Pose
Pose
p2
c__builtin__
object
p3
Ntp4
Rp5
(lp6
(lp7
F0.14220295585851928
aF-0.16480888087280327
aF0.7092672482940164
aa(lp8
F-0.024171767180232968
aF0.005372559697108732
aF0.7155206645132149
aF0.6981525907194308
aabS'base_link'
p9
I00
tp10
a(g1
(g2
g3
Ntp11
Rp12
(lp13
(lp14
F0.32182218569282217
aF-0.15770157249291303
aF0.7840425919350636
aa(lp15
F-0.07312545659470188
aF-0.11548911353892895
aF0.6648629992919881
aF0.7343514992319887
aabg9
I01
tp16
a(g1
(g2
g3
Ntp17
Rp18
(lp19
(lp20
F0.5657706547388799
aF-0.1767503383907532
aF0.7605776624704169
aa(lp21
F-0.14393590821211968
aF-0.14156639889067993
aF0.657585001247855
aF0.7258259951022257
aabg9
I01
tp22
a(g1
(g2
g3
Ntp23
Rp24
(lp25
(lp26
F0.8029862451614196
aF-0.024323552145105783
aF0.8162797985716552
aa(lp27
F-0.0037747511494248126
aF0.08508867551024864
aF0.05595302321228399
aF-0.99479391219844
aabg9
I01
tp28
a(g1
(g2
g3
Ntp29
Rp30
(lp31
(lp32
F0.5722893031016082
aF-0.06987776342838659
aF0.5929653562248611
aa(lp33
F0.026064145223781192
aF0.009072494169885289
aF0.036774166873247346
aF-0.9989424462070219
aabg9
I01
tp34
a.