(lp0
(ccopy_reg
_reconstructor
p1
(cgeometry_msgs.msg._Pose
Pose
p2
c__builtin__
object
p3
Ntp4
Rp5
(lp6
(lp7
F0.7245135826394046
aF0.3168922071760945
aF1.063055363847356
aa(lp8
F-0.9721691294733151
aF-0.13925468624115686
aF-0.08632602669934127
aF0.16746084071590642
aabS'base_link'
p9
I00
tp10
a(g1
(g2
g3
Ntp11
Rp12
(lp13
(lp14
F0.7294947117841586
aF0.34756021984596813
aF0.9469915763497263
aa(lp15
F-0.9841480111841469
aF0.018314250221186767
aF0.0525120578752286
aF0.16840357507734846
aabg9
I00
tp16
a(g1
(g2
g3
Ntp17
Rp18
(lp19
(lp20
F0.7342003901671581
aF0.27604895952042147
aF0.9113157919750667
aa(lp21
F-0.952818612679097
aF0.035614878712869225
aF0.02396478324903832
aF0.30048953544237644
aabg9
I00
tp22
a(g1
(g2
g3
Ntp23
Rp24
(lp25
(lp26
F0.7515903270790082
aF-0.3823431027209452
aF0.8942751964406132
aa(lp27
F-0.9986292676604156
aF0.046596564248632844
aF-0.02207977111630323
aF0.008990532781605172
aabg9
I01
tp28
a.