(lp0
(ccopy_reg
_reconstructor
p1
(cgeometry_msgs.msg._Pose
Pose
p2
c__builtin__
object
p3
Ntp4
Rp5
(lp6
(lp7
F0.4519556794361063
aF-0.20308129173635206
aF1.1651711436564234
aa(lp8
F-0.033124592980784476
aF0.6695234734260466
aF0.2639030652245095
aF-0.6935389333242128
aabS'base_link'
p9
I00
tp10
a(g1
(g2
g3
Ntp11
Rp12
(lp13
(lp14
F0.7005774781202396
aF0.021117073008813353
aF1.136653875234142
aa(lp15
F-0.10142417994130709
aF0.3790543665786541
aF-0.003608457051549869
aF-0.9197923145681288
aabg9
I00
tp16
a(g1
(g2
g3
Ntp17
Rp18
(lp19
(lp20
F0.592088097406398
aF0.3386938312876559
aF1.054895452672632
aa(lp21
F-0.005475184010799513
aF-0.007534512705187463
aF-0.04264493582606449
aF-0.9990468772418706
aabg9
I00
tp22
a(g1
(g2
g3
Ntp23
Rp24
(lp25
(lp26
F0.5764804700709187
aF0.3848022975131544
aF0.8403907353440472
aa(lp27
F0.0581407055927817
aF-0.02264028350248899
aF0.06610126829381574
aF0.9958602804841901
aabg9
I00
tp28
a(g1
(g2
g3
Ntp29
Rp30
(lp31
(lp32
F0.6183676191572682
aF-0.48549580769129924
aF0.8547658443324522
aa(lp33
F0.05258241105909091
aF-0.014856169440845082
aF-0.02997912543940051
aF-0.9980559284502276
aabg9
I01
tp34
a(g1
(g2
g3
Ntp35
Rp36
(lp37
(lp38
F0.7878066852247974
aF-0.44187445547470533
aF0.8795712570786969
aa(lp39
F0.00576623183742066
aF-0.09312856456798478
aF-0.02576269964423011
aF-0.9953040260839623
aabg9
I00
tp40
a(g1
(g2
g3
Ntp41
Rp42
(lp43
(lp44
F0.78275666151316
aF-0.42695518571950436
aF0.8582619547076513
aa(lp45
F-0.011092340573955042
aF-0.03187066075364101
aF0.0499785009565773
aF-0.998180029055807
aabg9
I00
tp46
a(g1
(g2
g3
Ntp47
Rp48
(lp49
(lp50
F0.687584937171143
aF0.4244681653905092
aF0.8272064020713974
aa(lp51
F-0.042121610032759535
aF0.04100161929568237
aF-0.07819521343817475
aF-0.9952035700190879
aabg9
I01
tp52
a(g1
(g2
g3
Ntp53
Rp54
(lp55
(lp56
F0.8286484043655025
aF0.4311675180241301
aF0.8664899254877425
aa(lp57
F0.07499873978036992
aF-0.030543314337074995
aF-0.09438787446097952
aF-0.9922364759145881
aabg9
I00
tp58
a(g1
(g2
g3
Ntp59
Rp60
(lp61
(lp62
F0.8430096494017617
aF-0.3029386628336514
aF0.8573918352706928
aa(lp63
F0.020304858918812615
aF-0.017549204180157405
aF0.047759668339845796
aF-0.998498248479685
aabg9
I01
tp64
a.