(lp0
(ccopy_reg
_reconstructor
p1
(cgeometry_msgs.msg._Pose
Pose
p2
c__builtin__
object
p3
Ntp4
Rp5
(lp6
(lp7
F0.5843884607482763
aF0.3507497920280027
aF0.9013204329681721
aa(lp8
F-0.9966242434053896
aF-0.011987962750018734
aF-0.06726239468309393
aF0.0455211650469883
aabS'base_link'
p9
I00
tp10
a(g1
(g2
g3
Ntp11
Rp12
(lp13
(lp14
F0.5833649170074108
aF0.2839701504918195
aF0.8793296963113784
aa(lp15
F-0.9620667082887923
aF0.023409402536900156
aF-0.05667696610658936
aF0.2658333504062011
aabg9
I00
tp16
a(g1
(g2
g3
Ntp17
Rp18
(lp19
(lp20
F0.639804906440965
aF-0.468448046589059
aF0.915862869730685
aa(lp21
F0.9978943949154662
aF-0.015610989731850546
aF-0.05577387125297725
aF-0.02919501466593569
aabg9
I01
tp22
a.