(lp0
(ccopy_reg
_reconstructor
p1
(cgeometry_msgs.msg._Pose
Pose
p2
c__builtin__
object
p3
Ntp4
Rp5
(lp6
(lp7
F0.5964760414363569
aF0.3488592522919939
aF0.9106564304842572
aa(lp8
F-0.997968169608515
aF-0.04127579956760269
aF-0.04541152746587447
aF-0.017135751851090758
aabS'base_link'
p9
I00
tp10
a(g1
(g2
g3
Ntp11
Rp12
(lp13
(lp14
F0.5771809053382492
aF0.25369880621716123
aF0.8850684396596054
aa(lp15
F-0.9668999831354933
aF-0.05788807812738711
aF-0.056827100440972486
aF0.24191749353606487
aabg9
I00
tp16
a.