(dp0
S'home'
p1
ccopy_reg
_reconstructor
p2
(cgeometry_msgs.msg._Pose
Pose
p3
c__builtin__
object
p4
Ntp5
Rp6
(lp7
g2
(cgeometry_msgs.msg._Point
Point
p8
g4
Ntp9
Rp10
(lp11
F0.551483478015986
aF-2.8812656486926675
aF0.0
abag2
(cgeometry_msgs.msg._Quaternion
Quaternion
p12
g4
Ntp13
Rp14
(lp15
F0.0
aF0.0
aF0.011092103792995583
aF0.999938480724412
ababsS'table'
p16
g2
(g3
g4
Ntp17
Rp18
(lp19
g2
(g8
g4
Ntp20
Rp21
(lp22
F4.59862032806146
aF-1.6743228629339149
aF0.0
abag2
(g12
g4
Ntp23
Rp24
(lp25
F0.0
aF0.0
aF-0.6839686485180447
aF0.7295114035053868
ababs.