(lp0
(ccopy_reg
_reconstructor
p1
(cgeometry_msgs.msg._Pose
Pose
p2
c__builtin__
object
p3
Ntp4
Rp5
(lp6
(lp7
F0.6382926836520058
aF0.1760847398703538
aF1.1500070477897908
aa(lp8
F-0.4732585087081657
aF0.4508073206430344
aF0.5374054669051682
aF0.5329113507239355
aabS'base_link'
p9
tp10
a(g1
(g2
g3
Ntp11
Rp12
(lp13
(lp14
F0.6379199471942532
aF0.1759946849399823
aF1.149114364448033
aa(lp15
F-0.47261607752431256
aF0.45133529181137666
aF0.5380653985217003
aF0.532368410543635
aabg9
tp16
a(g1
(g2
g3
Ntp17
Rp18
(lp19
(lp20
F0.6325402641468012
aF-0.3672285595476493
aF1.1848205005272519
aa(lp21
F0.4944425657842661
aF-0.46242751179081315
aF-0.5343242821643405
aF-0.5061471198862953
aabg9
tp22
a.