(lp0
(ccopy_reg
_reconstructor
p1
(cgeometry_msgs.msg._Pose
Pose
p2
c__builtin__
object
p3
Ntp4
Rp5
(lp6
(lp7
F0.7466952396262543
aF-0.06521807529229211
aF1.2153975052902393
aa(lp8
F-0.561593473205772
aF0.394877335163473
aF0.5580895777094731
aF0.46606939856520785
aabS'base_link'
p9
tp10
a(g1
(g2
g3
Ntp11
Rp12
(lp13
(lp14
F0.827920924744495
aF0.3385192471725741
aF1.2808743865164594
aa(lp15
F-0.9943579492768093
aF-0.014624019480364623
aF0.06619914378417129
aF-0.08158480328160672
aabg9
tp16
a(g1
(g2
g3
Ntp17
Rp18
(lp19
(lp20
F0.7653277080570207
aF0.33781694415919744
aF0.8987489258257373
aa(lp21
F-0.9934226377389129
aF-0.01820047843524017
aF-0.04264256303193164
aF-0.10469869736848239
aabg9
tp22
a(g1
(g2
g3
Ntp23
Rp24
(lp25
(lp26
F0.7409241180182072
aF-0.45594806739111915
aF0.9148483651262396
aa(lp27
F-0.9964235064162361
aF-0.035240246741476855
aF-0.0011677486953660064
aF-0.07679164820315461
aabg9
tp28
a.