(lp0
(ccopy_reg
_reconstructor
p1
(cgeometry_msgs.msg._Pose
Pose
p2
c__builtin__
object
p3
Ntp4
Rp5
(lp6
(lp7
F0.8278319493299269
aF0.3391217278029733
aF1.278765774297836
aa(lp8
F0.9943484847655897
aF0.015161349324825294
aF-0.0672452527526307
aF0.08074218422399723
aabS'base_link'
p9
I00
tp10
a(g1
(g2
g3
Ntp11
Rp12
(lp13
(lp14
F0.7125075914103436
aF0.4699212676369834
aF1.0575011043065823
aa(lp15
F0.9936918928586467
aF-0.07059134775876022
aF-0.07927843248991061
aF0.036169238733272754
aabg9
I00
tp16
a(g1
(g2
g3
Ntp17
Rp18
(lp19
(lp20
F0.695062717519219
aF0.43170122850838777
aF0.9733336498865867
aa(lp21
F0.9973384710656638
aF-0.021866067990335025
aF-0.04362918786397597
aF0.05416957789548751
aabg9
I00
tp22
a(g1
(g2
g3
Ntp23
Rp24
(lp25
(lp26
F0.7205085552963578
aF-0.2270592843056546
aF0.9519192528857571
aa(lp27
F0.997953180652078
aF-0.04401348929293547
aF0.03463646175861603
aF0.030863854320312023
aabg9
I01
tp28
a(g1
(g2
g3
Ntp29
Rp30
(lp31
(lp32
F0.6797096504800759
aF-0.25864639476303564
aF1.1342488107983626
aa(lp33
F0.9758350381799372
aF-0.0604236086149944
aF0.20996020930922907
aF0.003417058548951082
aabg9
I00
tp34
a.