(dp0
S'pose2'
p1
ccopy_reg
_reconstructor
p2
(cgeometry_msgs.msg._Pose
Pose
p3
c__builtin__
object
p4
Ntp5
Rp6
(lp7
g2
(cgeometry_msgs.msg._Point
Point
p8
g4
Ntp9
Rp10
(lp11
F3.1906930624915746
aF2.8624796000988577
aF0.0
abag2
(cgeometry_msgs.msg._Quaternion
Quaternion
p12
g4
Ntp13
Rp14
(lp15
F0.0
aF0.0
aF-0.0028836430126030006
aF0.9999958422928447
ababsS'center'
p16
g2
(g3
g4
Ntp17
Rp18
(lp19
g2
(g8
g4
Ntp20
Rp21
(lp22
F0.3113538689638964
aF-0.11412078444203974
aF0.0
abag2
(g12
g4
Ntp23
Rp24
(lp25
F0.0
aF0.0
aF0.005723519824654137
aF0.9999836205262648
ababs.