(lp0
(S'open_gripper'
p1
S'base_link'
p2
tp3
a(ccopy_reg
_reconstructor
p4
(cgeometry_msgs.msg._Pose
Pose
p5
c__builtin__
object
p6
Ntp7
Rp8
(lp9
g4
(cgeometry_msgs.msg._Point
Point
p10
g6
Ntp11
Rp12
(lp13
cnumpy.core.multiarray
scalar
p14
(cnumpy
dtype
p15
(S'f8'
p16
I0
I1
tp17
Rp18
(I3
S'<'
p19
NNNI-1
I-1
I0
tp20
bS'\xa0\x96\x80\xd348\xa6?'
p21
tp22
Rp23
ag14
(g18
S'P\xa4\xa0\x1d\xf2\tw\xbf'
p24
tp25
Rp26
ag14
(g18
S'&Cg\x1d\xd01\xd4?'
p27
tp28
Rp29
abag4
(cgeometry_msgs.msg._Quaternion
Quaternion
p30
g6
Ntp31
Rp32
(lp33
g14
(g18
S'\x8b\x18\x12(\x9f\xe4\xaa?'
p34
tp35
Rp36
ag14
(g18
S'jV)\xc9<Z\xe6?'
p37
tp38
Rp39
ag14
(g18
S'~3S {\xa8\xa9?'
p40
tp41
Rp42
ag14
(g18
S'\xaec\x93\x11\xe9\xc7\xe6?'
p43
tp44
Rp45
ababS'1'
p46
tp47
a(g4
(g5
g6
Ntp48
Rp49
(lp50
g4
(g10
g6
Ntp51
Rp52
(lp53
g14
(g18
S'`\x15\x17\xcdM\x14\xb1?'
p54
tp55
Rp56
ag14
(g18
S'@\xed\xac\x80H\xb4V?'
p57
tp58
Rp59
ag14
(g18
S'\x08=k\xd5\xf3\xe9\xc2?'
p60
tp61
Rp62
abag4
(g30
g6
Ntp63
Rp64
(lp65
g14
(g18
S'\x1d\x98\x96t,ac?'
p66
tp67
Rp68
ag14
(g18
S'\\\xe3\xecz\x7f\xf1\xe5?'
p69
tp70
Rp71
ag14
(g18
S'\xe3\xcb\xd0~\xe6\x95\x9d\xbf'
p72
tp73
Rp74
ag14
(g18
S'\x8c\xade\x16\xdeE\xe7?'
p75
tp76
Rp77
ababg46
tp78
a(S'close_gripper'
p79
S'base_link'
p80
tp81
a(g4
(g5
g6
Ntp82
Rp83
(lp84
(lp85
F0.7725249697629492
aF-0.006360880953919081
aF1.1798622834551615
aa(lp86
F0.9649418757811867
aF-0.004174267861069079
aF0.2622819946318313
aF-0.008826502345625575
aabS'base_link'
p87
tp88
a.