(lp0
(ccopy_reg
_reconstructor
p1
(cgeometry_msgs.msg._Pose
Pose
p2
c__builtin__
object
p3
Ntp4
Rp5
(lp6
g1
(cgeometry_msgs.msg._Point
Point
p7
g3
Ntp8
Rp9
(lp10
cnumpy.core.multiarray
scalar
p11
(cnumpy
dtype
p12
(S'f8'
p13
I0
I1
tp14
Rp15
(I3
S'<'
p16
NNNI-1
I-1
I0
tp17
bS'\xdc\xcd\x87\x99\x03J\xc2?'
p18
tp19
Rp20
ag11
(g15
S' t)6\xb4\xc6\x90?'
p21
tp22
Rp23
ag11
(g15
S' \xa8t\xcd\xd8\xce\xd3?'
p24
tp25
Rp26
abag1
(cgeometry_msgs.msg._Quaternion
Quaternion
p27
g3
Ntp28
Rp29
(lp30
g11
(g15
S'L\xfd\xce\xfb\xca\x14\xd1\xbf'
p31
tp32
Rp33
ag11
(g15
S'\xfbJ\x0cP\x96\x88\xe5?'
p34
tp35
Rp36
ag11
(g15
S'\xd2(\x9ch\xa7\x11\xcb\xbf'
p37
tp38
Rp39
ag11
(g15
S'2\xf1\x00sw\x03\xe5?'
p40
tp41
Rp42
ababS'1'
p43
tp44
a(g1
(g2
g3
Ntp45
Rp46
(lp47
g1
(g7
g3
Ntp48
Rp49
(lp50
g11
(g15
S'\xd4\xdd\xa4)a\xd7\xc3?'
p51
tp52
Rp53
ag11
(g15
S'`\x14V\xe7{l\xc0\xbf'
p54
tp55
Rp56
ag11
(g15
S'\xc6Dw\t\r\xf4\xdc?'
p57
tp58
Rp59
abag1
(g27
g3
Ntp60
Rp61
(lp62
g11
(g15
S'\t\xb6I\x91>\x07\xd7\xbf'
p63
tp64
Rp65
ag11
(g15
S'!G<e\xdfG\xe4?'
p66
tp67
Rp68
ag11
(g15
S'\xb7@\x99n\xe3\xf3\xd2\xbf'
p69
tp70
Rp71
ag11
(g15
S'\xea\xfb$\xc5\xa1\xc1\xe3?'
p72
tp73
Rp74
ababg43
tp75
a.