(lp0
(ccopy_reg
_reconstructor
p1
(cgeometry_msgs.msg._Pose
Pose
p2
c__builtin__
object
p3
Ntp4
Rp5
(lp6
g1
(cgeometry_msgs.msg._Point
Point
p7
g3
Ntp8
Rp9
(lp10
cnumpy.core.multiarray
scalar
p11
(cnumpy
dtype
p12
(S'f8'
p13
I0
I1
tp14
Rp15
(I3
S'<'
p16
NNNI-1
I-1
I0
tp17
bS'\xc0i\xcd\xae\x9e\xac\xad?'
p18
tp19
Rp20
ag11
(g15
S'M&\x0e\x96\xae\xad\xc4?'
p21
tp22
Rp23
ag11
(g15
S'\x98bTJ\xed\x94\xb7?'
p24
tp25
Rp26
abag1
(cgeometry_msgs.msg._Quaternion
Quaternion
p27
g3
Ntp28
Rp29
(lp30
g11
(g15
S'\x15\xa2Pg\x1e\xcc\x9a\xbf'
p31
tp32
Rp33
ag11
(g15
S'\xa1\x8e\xac\xeb\xfb\xa3\xe6?'
p34
tp35
Rp36
ag11
(g15
S'\x83\x14x\xf5}L\xa6?'
p37
tp38
Rp39
ag11
(g15
S'g>W\xdaD\x8e\xe6?'
p40
tp41
Rp42
ababS'1'
p43
tp44
a(g1
(g2
g3
Ntp45
Rp46
(lp47
g1
(g7
g3
Ntp48
Rp49
(lp50
g11
(g15
S'\x08\xac]\xb6\xa7\xdf\xb1?'
p51
tp52
Rp53
ag11
(g15
S'\x1e\x04\xec\x93Ml\xba\xbf'
p54
tp55
Rp56
ag11
(g15
S'\x9c\x86@5C\x84\xc1?'
p57
tp58
Rp59
abag1
(g27
g3
Ntp60
Rp61
(lp62
g11
(g15
S'\x88\xeb\x85\xae\xb6\xbb\xc2\xbf'
p63
tp64
Rp65
ag11
(g15
S'~\xa4xxQ_\xe6?'
p66
tp67
Rp68
ag11
(g15
S'\x1af\x9f\xfd\x96B\xb4\xbf'
p69
tp70
Rp71
ag11
(g15
S'9\xa0/\x96e@\xe6?'
p72
tp73
Rp74
ababg43
tp75
a.