(lp0
(S'open_gripper'
p1
S'base_link'
p2
tp3
a(ccopy_reg
_reconstructor
p4
(cgeometry_msgs.msg._Pose
Pose
p5
c__builtin__
object
p6
Ntp7
Rp8
(lp9
g4
(cgeometry_msgs.msg._Point
Point
p10
g6
Ntp11
Rp12
(lp13
cnumpy.core.multiarray
scalar
p14
(cnumpy
dtype
p15
(S'f8'
p16
I0
I1
tp17
Rp18
(I3
S'<'
p19
NNNI-1
I-1
I0
tp20
bS'\x00\xa4 \x19&\x81k?'
p21
tp22
Rp23
ag14
(g18
S'\xa5\xbf\xa9\xcd\xd4)\xcf?'
p24
tp25
Rp26
ag14
(g18
S'|\n\xece\xd9C\xd0?'
p27
tp28
Rp29
abag4
(cgeometry_msgs.msg._Quaternion
Quaternion
p30
g6
Ntp31
Rp32
(lp33
g14
(g18
S'\xf7\xde/P l\xe5\xbf'
p34
tp35
Rp36
ag14
(g18
S'.\xccP\xa6KY\x94?'
p37
tp38
Rp39
ag14
(g18
S'\x11?Q\xd9\x1a\xc3\xe7?'
p40
tp41
Rp42
ag14
(g18
S'\x12H\x1f\xec\xa2Iy?'
p43
tp44
Rp45
ababS'3'
p46
tp47
a(g4
(g5
g6
Ntp48
Rp49
(lp50
g4
(g10
g6
Ntp51
Rp52
(lp53
g14
(g18
S'\x00\x8c\x03t\xba\x15n?'
p54
tp55
Rp56
ag14
(g18
S'\xb6d+\xac L\xcf?'
p57
tp58
Rp59
ag14
(g18
S' \x19vt\xdcI\xd0?'
p60
tp61
Rp62
abag4
(g30
g6
Ntp63
Rp64
(lp65
g14
(g18
S' \x84Xg\xd9n\xe5\xbf'
p66
tp67
Rp68
ag14
(g18
S'\x86\x066\x85\x95\xc6\x93?'
p69
tp70
Rp71
ag14
(g18
S'\xcc\xb9J2\xb2\xc0\xe7?'
p72
tp73
Rp74
ag14
(g18
S'\x1a\x9d\x9c0jd}?'
p75
tp76
Rp77
ababg46
tp78
a(g4
(g5
g6
Ntp79
Rp80
(lp81
g4
(g10
g6
Ntp82
Rp83
(lp84
g14
(g18
S'\x00\\\x03\xb9\x85\x00g?'
p85
tp86
Rp87
ag14
(g18
S'\xd5\xa51B\x9e?\xcf?'
p88
tp89
Rp90
ag14
(g18
S'\xbe\xcf\xa9\x1e\tI\xd0?'
p91
tp92
Rp93
abag4
(g30
g6
Ntp94
Rp95
(lp96
g14
(g18
S'\xd6\xd7\x0f\xe2\xb6i\xe5\xbf'
p97
tp98
Rp99
ag14
(g18
S'V\x18S\xf1\x87\x00\x94?'
p100
tp101
Rp102
ag14
(g18
S'\x96\x12\x988T\xc5\xe7?'
p103
tp104
Rp105
ag14
(g18
S'\xcc&_\xb7\xee\xa1z?'
p106
tp107
Rp108
ababg46
tp109
a.