(lp0
(ccopy_reg
_reconstructor
p1
(cgeometry_msgs.msg._Pose
Pose
p2
c__builtin__
object
p3
Ntp4
Rp5
(lp6
(lp7
F-0.955881066938316
aF0.3068606602656334
aF0.5464772885118065
aa(lp8
F-0.0645510398442226
aF0.6785451387615877
aF-0.09365113163748157
aF0.7256990584678107
aabS'base_link'
p9
tp10
a(g1
(g2
g3
Ntp11
Rp12
(lp13
(lp14
F-0.955879421778573
aF-0.06137849414566604
aF0.5462159782740913
aa(lp15
F-0.0644070888438332
aF0.6784577783578636
aF-0.09360946602782642
aF0.7257988962256421
aabg9
tp16
a(g1
(g2
g3
Ntp17
Rp18
(lp19
(lp20
F0.4388876761809383
aF-0.6141458165248702
aF1.1691185229254286
aa(lp21
F-0.11999784666779989
aF-0.6762391181190651
aF-0.08803134337333061
aF0.721492657276931
aabS'base_link'
p22
tp23
a(g1
(g2
g3
Ntp24
Rp25
(lp26
(lp27
F0.6958929045084017
aF0.2344690012282303
aF1.120968666682642
aa(lp28
F-0.12015260833063701
aF-0.6761820434427066
aF-0.08808455777923672
aF0.7215138983538896
aabg22
tp29
a(g1
(g2
g3
Ntp30
Rp31
(lp32
(lp33
F0.7272575653170035
aF0.25094503564106563
aF1.5715936099117824
aa(lp34
F-0.11185558801272488
aF-0.6773211436805485
aF-0.08037592753960555
aF0.7226784250451576
aabg22
tp35
a.