(lp0
(ccopy_reg
_reconstructor
p1
(cgeometry_msgs.msg._Pose
Pose
p2
c__builtin__
object
p3
Ntp4
Rp5
(lp6
g1
(cgeometry_msgs.msg._Point
Point
p7
g3
Ntp8
Rp9
(lp10
cnumpy.core.multiarray
scalar
p11
(cnumpy
dtype
p12
(S'f8'
p13
I0
I1
tp14
Rp15
(I3
S'<'
p16
NNNI-1
I-1
I0
tp17
bS'$H\x98h\xbc\xf4\xb1\xbf'
p18
tp19
Rp20
ag11
(g15
S'D:\x08\nS!\xc9\xbf'
p21
tp22
Rp23
ag11
(g15
S'X\x91\xf4\xd9-\x11\xd3?'
p24
tp25
Rp26
abag1
(cgeometry_msgs.msg._Quaternion
Quaternion
p27
g3
Ntp28
Rp29
(lp30
g11
(g15
S'\x9b\xe3\xa8)\xdd|\xcc?'
p31
tp32
Rp33
ag11
(g15
S'\xef\t\xce\x1d\x8aU\x90?'
p34
tp35
Rp36
ag11
(g15
S':\xe2 \xbe\xd4\xec\xee?'
p37
tp38
Rp39
ag11
(g15
S'\x91H^l\xeaR\xc0\xbf'
p40
tp41
Rp42
ababS'table'
p43
I00
tp44
a.