(lp0
(ccopy_reg
_reconstructor
p1
(cgeometry_msgs.msg._Pose
Pose
p2
c__builtin__
object
p3
Ntp4
Rp5
(lp6
g1
(cgeometry_msgs.msg._Point
Point
p7
g3
Ntp8
Rp9
(lp10
cnumpy.core.multiarray
scalar
p11
(cnumpy
dtype
p12
(S'f8'
p13
I0
I1
tp14
Rp15
(I3
S'<'
p16
NNNI-1
I-1
I0
tp17
bS'NK7\xc9\x95n\xe5\xbf'
p18
tp19
Rp20
ag11
(g15
S'\xd5\xa15r\xf2\x82\xdd\xbf'
p21
tp22
Rp23
ag11
(g15
S'\xbc\xaf\xe5j\x0c\x96\xc4?'
p24
tp25
Rp26
abag1
(cgeometry_msgs.msg._Quaternion
Quaternion
p27
g3
Ntp28
Rp29
(lp30
g11
(g15
S'Y-)Kr,\xb9?'
p31
tp32
Rp33
ag11
(g15
S'z:O\x14\xca\xbc\xc7\xbf'
p34
tp35
Rp36
ag11
(g15
S'\rt\xa4\xa0\xf9\x9a\xe0?'
p37
tp38
Rp39
ag11
(g15
S'{\xb4K#P\x84\xea?'
p40
tp41
Rp42
ababS'table'
p43
I00
tp44
a.