(lp0
(ccopy_reg
_reconstructor
p1
(cgeometry_msgs.msg._Pose
Pose
p2
c__builtin__
object
p3
Ntp4
Rp5
(lp6
(lp7
F0.6881040130143657
aF0.2270451122051497
aF0.9875954258747413
aa(lp8
F-0.09091263220606632
aF-0.6807435767053903
aF-0.05705333575511557
aF0.7246157553896625
aabS'base_link'
p9
tp10
a(g1
(g2
g3
Ntp11
Rp12
(lp13
(lp14
F0.5556834755123824
aF-0.3998797983790511
aF1.0223469179739801
aa(lp15
F-0.09091325837024243
aF-0.6807649861150699
aF-0.05709460280993157
aF0.7245923125884168
aabg9
tp16
a(g1
(g2
g3
Ntp17
Rp18
(lp19
(lp20
F0.5851907016265288
aF-0.38168832747117243
aF1.4636730476140367
aa(lp21
F-0.09081994554420693
aF-0.6807735548082703
aF-0.057034831603217845
aF0.7246006710934308
aabg9
tp22
a(g1
(g2
g3
Ntp23
Rp24
(lp25
(lp26
F0.6177275073705052
aF-0.12303756884140753
aF1.0687909998465637
aa(lp27
F-0.09099776377140846
aF-0.6807158950647375
aF-0.05707705907287628
aF0.7246292062306127
aabg9
tp28
a.