(lp0
(ccopy_reg
_reconstructor
p1
(cgeometry_msgs.msg._Pose
Pose
p2
c__builtin__
object
p3
Ntp4
Rp5
(lp6
(lp7
F0.5697476761472939
aF-0.24478838251825122
aF1.147910543267212
aa(lp8
F-0.009870301039155741
aF-0.6815427169832112
aF0.013937153478049163
aF0.731579016810534
aabS'base_link'
p9
tp10
a(g1
(g2
g3
Ntp11
Rp12
(lp13
(lp14
F0.6750342573311165
aF0.05571040471950154
aF1.1305063055215678
aa(lp15
F-0.13451724301784115
aF-0.6734108690330615
aF-0.1035759028985188
aF0.7195102119760167
aabg9
tp16
a.