(lp0
(ccopy_reg
_reconstructor
p1
(cgeometry_msgs.msg._Pose
Pose
p2
c__builtin__
object
p3
Ntp4
Rp5
(lp6
g1
(cgeometry_msgs.msg._Point
Point
p7
g3
Ntp8
Rp9
(lp10
cnumpy.core.multiarray
scalar
p11
(cnumpy
dtype
p12
(S'f8'
p13
I0
I1
tp14
Rp15
(I3
S'<'
p16
NNNI-1
I-1
I0
tp17
bS'\xc0;\x0f\xe6\xbd\x9c\x95?'
p18
tp19
Rp20
ag11
(g15
S'\x18\xc7\xd1\xd0.\xb9\xc2?'
p21
tp22
Rp23
ag11
(g15
S'\x88\x80a!\x1c\x8c\xd5?'
p24
tp25
Rp26
abag1
(cgeometry_msgs.msg._Quaternion
Quaternion
p27
g3
Ntp28
Rp29
(lp30
g11
(g15
S'x\xe7s\x85\x8a\xd6\xc1\xbf'
p31
tp32
Rp33
ag11
(g15
S'\x84\x04\x98+\tP\xbb\xbf'
p34
tp35
Rp36
ag11
(g15
S'\x88\n\xa3a\xa3\xc5\xe6\xbf'
p37
tp38
Rp39
ag11
(g15
S'\x1b\x93.\xba\xe0\xc4\xe5?'
p40
tp41
Rp42
ababS'table'
p43
I00
tp44
a.