(lp0
(ccopy_reg
_reconstructor
p1
(cgeometry_msgs.msg._Pose
Pose
p2
c__builtin__
object
p3
Ntp4
Rp5
(lp6
g1
(cgeometry_msgs.msg._Point
Point
p7
g3
Ntp8
Rp9
(lp10
cnumpy.core.multiarray
scalar
p11
(cnumpy
dtype
p12
(S'f8'
p13
I0
I1
tp14
Rp15
(I3
S'<'
p16
NNNI-1
I-1
I0
tp17
bS'D\x00a\xb9L\x19\xb2?'
p18
tp19
Rp20
ag11
(g15
S'\xd0\x108\x7f\ry\xc3\xbf'
p21
tp22
Rp23
ag11
(g15
S'\x80&\xfb\x81$\xde\xa0?'
p24
tp25
Rp26
abag1
(cgeometry_msgs.msg._Quaternion
Quaternion
p27
g3
Ntp28
Rp29
(lp30
g11
(g15
S'=\xa3\xa7\x1c\xe1T\xc9?'
p31
tp32
Rp33
ag11
(g15
S'\xe3\xefA>\x85\x05\x8a?'
p34
tp35
Rp36
ag11
(g15
S'\x8ec\x11\xe2\x98\x18\xef?'
p37
tp38
Rp39
ag11
(g15
S'i\x86e9\x81`\xc0\xbf'
p40
tp41
Rp42
ababS'table'
p43
I00
tp44
a.