(lp0
(ccopy_reg
_reconstructor
p1
(cgeometry_msgs.msg._Pose
Pose
p2
c__builtin__
object
p3
Ntp4
Rp5
(lp6
(lp7
F0.4296865697279036
aF-0.03519643586429121
aF1.320727526660853
aa(lp8
F-0.660958103884366
aF0.7476537999727824
aF-0.06322488204383336
aF-0.01227984472154428
aabS'base_link'
p9
I00
tp10
a(g1
(g2
g3
Ntp11
Rp12
(lp13
(lp14
F0.20796528243486628
aF-0.3637754194365465
aF1.3128943517755043
aa(lp15
F-0.19141364524148352
aF0.9781771589101602
aF-0.03764529297385765
aF-0.0715059026845101
aabg9
I00
tp16
a(g1
(g2
g3
Ntp17
Rp18
(lp19
(lp20
F0.057050657342821845
aF-0.32099285007439105
aF1.2044500389015331
aa(lp21
F-0.002484719988974232
aF0.9981256500543154
aF0.06084054154851022
aF-0.006118935717160353
aabg9
I00
tp22
a(g1
(g2
g3
Ntp23
Rp24
(lp25
(lp26
F0.01486819437638602
aF-0.3235267646696621
aF1.2344994294543081
aa(lp27
F0.024729258849513103
aF0.9990648614636456
aF0.03511583847309852
aF0.004974357618063565
aabg9
I00
tp28
a(g1
(g2
g3
Ntp29
Rp30
(lp31
(lp32
F-0.06622461520454137
aF-0.3251978927370599
aF1.231836220534966
aa(lp33
F0.03507280450519029
aF0.9988022085615387
aF0.021844064738200362
aF0.026208460321944262
aabg9
I01
tp34
a(S'close_gripper'
p35
S'base_link'
p36
S'blah'
p37
tp38
a(g1
(g2
g3
Ntp39
Rp40
(lp41
(lp42
F-0.06844274593170656
aF-0.3246847420101593
aF1.2546232563407105
aa(lp43
F0.02394901639574315
aF0.9996682539307251
aF-0.005348918374395827
aF0.007824050676891193
aabg9
I01
tp44
a(g1
(g2
g3
Ntp45
Rp46
(lp47
(lp48
F-0.07838168649001553
aF-0.39749995913677183
aF1.2525566896097968
aa(lp49
F0.02601761917542489
aF0.9991981813218638
aF0.03005509538845263
aF-0.004771705849402542
aabg9
I01
tp50
a(g1
(g2
g3
Ntp51
Rp52
(lp53
(lp54
F-0.06282633906084464
aF-0.4892539509368731
aF1.285866356321014
aa(lp55
F-0.07142152103206212
aF0.996478831716862
aF0.015993017348309577
aF-0.04090388330905858
aabg9
I00
tp56
a(g1
(g2
g3
Ntp57
Rp58
(lp59
(lp60
F0.25465626529545937
aF-0.35197955820466953
aF1.3734789083775532
aa(lp61
F-0.3543873434450515
aF0.9252430924583476
aF-0.1068451496835513
aF-0.08318019387553889
aabg9
I00
tp62
a.