(lp0
(ccopy_reg
_reconstructor
p1
(cgeometry_msgs.msg._Pose
Pose
p2
c__builtin__
object
p3
Ntp4
Rp5
(lp6
(lp7
F0.42968710279192696
aF-0.03566553330408961
aF1.3212470046431641
aa(lp8
F-0.6606233710955799
aF0.7479541751435119
aF-0.06350601230429233
aF-0.010406721333248905
aabS'base_link'
p9
I00
tp10
a(g1
(g2
g3
Ntp11
Rp12
(lp13
(lp14
F0.1637887547320626
aF-0.47090222123170344
aF1.3113532846485454
aa(lp15
F-0.17524340854997175
aF0.9687026142551695
aF-0.17436314106583164
aF0.02241624260763381
aabg9
I00
tp16
a(g1
(g2
g3
Ntp17
Rp18
(lp19
(lp20
F-0.08904811166580281
aF-0.49418520327376186
aF1.2514385801209564
aa(lp21
F0.06232086349190108
aF0.9940369330718061
aF-0.08867987122147286
aF0.01194010481378985
aabg9
I00
tp22
a(g1
(g2
g3
Ntp23
Rp24
(lp25
(lp26
F-0.08126262060753339
aF-0.3977955720961265
aF1.2537988710633357
aa(lp27
F0.048401449988417
aF0.9981748757039397
aF-0.03597185456818259
aF-0.0032004423706998996
aabg9
I00
tp28
a(g1
(g2
g3
Ntp29
Rp30
(lp31
(lp32
F-0.07240266889800531
aF-0.32499360941397554
aF1.2535946471696433
aa(lp33
F0.0052430707056789205
aF0.9969785095292578
aF-0.07738052876904945
aF0.00431456994578985
aabg9
I01
tp34
a(S'open_gripper'
p35
S'base_link'
p36
S'blah'
p37
tp38
a(g1
(g2
g3
Ntp39
Rp40
(lp41
(lp42
F0.00922063045898136
aF-0.3271397609293031
aF1.2461607989965553
aa(lp43
F0.02956447442183044
aF0.998107773087826
aF0.04680458242671854
aF-0.026760908386726786
aabg9
I01
tp44
a(g1
(g2
g3
Ntp45
Rp46
(lp47
(lp48
F0.26395387587049635
aF-0.29630155655225676
aF1.2764636692658242
aa(lp49
F-0.35375145847528
aF0.9332110375461871
aF0.003960065940055611
aF-0.0629395178431793
aabg9
I00
tp50
a.