(lp0
(ccopy_reg
_reconstructor
p1
(cgeometry_msgs.msg._Pose
Pose
p2
c__builtin__
object
p3
Ntp4
Rp5
(lp6
(lp7
F0.6172862975829558
aF0.49996250157428507
aF1.1562331464075672
aa(lp8
F0.1665284243280388
aF-0.06980684367737373
aF-0.013235549557749025
aF0.9834734916074395
aabS'base_link'
p9
I00
tp10
a(g1
(g2
g3
Ntp11
Rp12
(lp13
g1
(cgeometry_msgs.msg._Point
Point
p14
g3
Ntp15
Rp16
(lp17
cnumpy.core.multiarray
scalar
p18
(cnumpy
dtype
p19
(S'f8'
p20
I0
I1
tp21
Rp22
(I3
S'<'
p23
NNNI-1
I-1
I0
tp24
bS'(\xd7\xcc\xa9\x7f\n\xb1?'
p25
tp26
Rp27
ag18
(g22
S'\x00`\xd3,\xfdu!?'
p28
tp29
Rp30
ag18
(g22
S'\xc08\xf1\xea\xb6\x95\xc5?'
p31
tp32
Rp33
abag1
(cgeometry_msgs.msg._Quaternion
Quaternion
p34
g3
Ntp35
Rp36
(lp37
g18
(g22
S'o\x9b\xb9#\xbd#\xb7?'
p38
tp39
Rp40
ag18
(g22
S'->\x11XJ\x9b\x98\xbf'
p41
tp42
Rp43
ag18
(g22
S'2\xd7\t\xd1\xf4\xf5\xb4?'
p44
tp45
Rp46
ag18
(g22
S'\xccB\xe2\xb7v\xc0\xef?'
p47
tp48
Rp49
ababS'table'
p50
I01
tp51
a(g1
(g2
g3
Ntp52
Rp53
(lp54
g1
(g14
g3
Ntp55
Rp56
(lp57
g18
(g22
S'p\xa4|\x12\xeaN\xb8?'
p58
tp59
Rp60
ag18
(g22
S'T\t\x83l2,\xb0\xbf'
p61
tp62
Rp63
ag18
(g22
S'\xc0[\xec65\x88\xbe?'
p64
tp65
Rp66
abag1
(g34
g3
Ntp67
Rp68
(lp69
g18
(g22
S'A\xe9\xd8CdH\xac?'
p70
tp71
Rp72
ag18
(g22
S'\xd6w\xe4mY\x04\x84?'
p73
tp74
Rp75
ag18
(g22
S'\xdb\xef\x10\xab\x86\xd6\xb3?'
p76
tp77
Rp78
ag18
(g22
S'\x0e8\xd9_m\xda\xef?'
p79
tp80
Rp81
ababg50
I00
tp82
a(g1
(g2
g3
Ntp83
Rp84
(lp85
g1
(g14
g3
Ntp86
Rp87
(lp88
g18
(g22
S'\x04\xfd\x14|\x1c4\xc8?'
p89
tp90
Rp91
ag18
(g22
S'=g\xe7\x93\xfc\x92\xd7\xbf'
p92
tp93
Rp94
ag18
(g22
S'\xc0\x05_\xa0\xfe\x11\xbe?'
p95
tp96
Rp97
abag1
(g34
g3
Ntp98
Rp99
(lp100
g18
(g22
S'}oJ8\x94S\x93?'
p101
tp102
Rp103
ag18
(g22
S'Z\xea`\xabAY\x8d\xbf'
p104
tp105
Rp106
ag18
(g22
S'\x86\xd9\x95\x7f}\x8f\xaa?'
p107
tp108
Rp109
ag18
(g22
S'R\xeb\xdd\x87\xaa\xf2\xef?'
p110
tp111
Rp112
ababg50
I01
tp113
a(g1
(g2
g3
Ntp114
Rp115
(lp116
g1
(g14
g3
Ntp117
Rp118
(lp119
g18
(g22
S'T\xf0\x8a\xd4\x7f`\xc5?'
p120
tp121
Rp122
ag18
(g22
S'a\x0f0\xe3Nt\xe5\xbf'
p123
tp124
Rp125
ag18
(g22
S'\xd8\x8c\xb5\xaf\xe7\x1b\xbd?'
p126
tp127
Rp128
abag1
(g34
g3
Ntp129
Rp130
(lp131
g18
(g22
S'-v1\xd45\xa7\x88?'
p132
tp133
Rp134
ag18
(g22
S'\x02\xe3\x19k>\xc6\x8e\xbf'
p135
tp136
Rp137
ag18
(g22
S'*\x88\xa3\xc7\x8d5\xbf\xbf'
p138
tp139
Rp140
ag18
(g22
S'\xd2\x91\x90\xc5]\xc1\xef?'
p141
tp142
Rp143
ababg50
I01
tp144
a(g1
(g2
g3
Ntp145
Rp146
(lp147
g1
(g14
g3
Ntp148
Rp149
(lp150
g18
(g22
S'\xd07R\xf2\xf5\x17\xaf?'
p151
tp152
Rp153
ag18
(g22
S'\xb54>\rx\x19\xed\xbf'
p154
tp155
Rp156
ag18
(g22
S'\xec\xf9\x03\x84\x8b~\xc1?'
p157
tp158
Rp159
abag1
(g34
g3
Ntp160
Rp161
(lp162
g18
(g22
S'z\xf6\xe2I\xa9F\xba?'
p163
tp164
Rp165
ag18
(g22
S'\x8f\xbd\x07T\x08\x12q\xbf'
p166
tp167
Rp168
ag18
(g22
S'\x90\xfd\x8a\xd4TF\xcb\xbf'
p169
tp170
Rp171
ag18
(g22
S'\xe8\x1bj\xfc\x7f\x17\xef?'
p172
tp173
Rp174
ababg50
I01
tp175
a(g1
(g2
g3
Ntp176
Rp177
(lp178
(lp179
F0.818408988201727
aF-0.4095018303497757
aF0.9840383718042202
aa(lp180
F0.05686106091597728
aF-0.11044991209135645
aF-0.18671567850096732
aF0.9745280355497447
aabg9
I00
tp181
a.