(lp0
(ccopy_reg
_reconstructor
p1
(cgeometry_msgs.msg._Pose
Pose
p2
c__builtin__
object
p3
Ntp4
Rp5
(lp6
(lp7
F0.5947034099608296
aF-0.29547074143796576
aF1.241987540055304
aa(lp8
F0.028422438191791938
aF-0.4669780995851541
aF-0.17063028185181767
aF0.8671844823509243
aabS'base_link'
p9
I00
tp10
a(g1
(g2
g3
Ntp11
Rp12
(lp13
(lp14
F0.6703103902734617
aF0.45136935073213075
aF1.1887772397141245
aa(lp15
F0.1807443475125355
aF-0.1977391472295388
aF0.12603036149918256
aF0.9551686021198497
aabg9
I00
tp16
a(g1
(g2
g3
Ntp17
Rp18
(lp19
(lp20
F0.6500167150133562
aF0.41301066117518126
aF0.8494872708185485
aa(lp21
F0.20158980977700308
aF0.04598104316640057
aF0.10314221656408792
aF0.972938320463146
aabg9
I00
tp22
a(g1
(g2
g3
Ntp23
Rp24
(lp25
(lp26
F0.6543414743781443
aF0.1238810676863235
aF0.8154491673781308
aa(lp27
F0.1227310418785773
aF-0.04665445045357386
aF0.06303793381188884
aF0.9893364809370983
aabg9
I01
tp28
a(g1
(g2
g3
Ntp29
Rp30
(lp31
(lp32
F0.6565442476136636
aF-0.14396044535998456
aF0.8287724319765202
aa(lp33
F0.04867000129996136
aF-0.08399057450592483
aF-0.10323127288202201
aF0.9899091466729582
aabg9
I01
tp34
a(g1
(g2
g3
Ntp35
Rp36
(lp37
(lp38
F0.6201886717671239
aF-0.4098580059159151
aF0.8260959675951629
aa(lp39
F0.03085640884201584
aF-0.06194455953612015
aF-0.161256355964328
aF0.9844831848428677
aabg9
I01
tp40
a(g1
(g2
g3
Ntp41
Rp42
(lp43
(lp44
F0.47729693271910517
aF-0.43600341185193736
aF1.057347520618325
aa(lp45
F-0.11301541899110981
aF-0.2970000469429621
aF-0.20762913547974862
aF0.9251533004243535
aabg9
I00
tp46
a.