(lp0
(ccopy_reg
_reconstructor
p1
(cgeometry_msgs.msg._Pose
Pose
p2
c__builtin__
object
p3
Ntp4
Rp5
(lp6
(lp7
F0.6966644258226664
aF0.5063777382881877
aF1.0416061943237438
aa(lp8
F0.0904808392131057
aF0.0065555690120288924
aF0.22974074882475976
aF0.9690146699506974
aabS'base_link'
p9
I00
tp10
a(g1
(g2
g3
Ntp11
Rp12
(lp13
(lp14
F0.7836444028202453
aF0.3621838580408724
aF0.8343446275111428
aa(lp15
F0.1321016273999037
aF0.016905897361213205
aF0.18495258635213696
aF0.9736816170978914
aabg9
I00
tp16
a(g1
(g2
g3
Ntp17
Rp18
(lp19
(lp20
F0.852015540490255
aF0.13719823904165138
aF0.8409970206907422
aa(lp21
F0.0037530104126941707
aF-0.002112381754941917
aF0.11461989459417897
aF0.9934000868327841
aabg9
I01
tp22
a(g1
(g2
g3
Ntp23
Rp24
(lp25
(lp26
F0.8534527413335806
aF-0.14111896553122977
aF0.8455199206589523
aa(lp27
F0.07086619300665663
aF-0.013945487304507698
aF-0.08271784718040898
aF0.9939523448487966
aabg9
I01
tp28
a(g1
(g2
g3
Ntp29
Rp30
(lp31
(lp32
F0.7598949256742545
aF-0.40531385977769824
aF0.8446792520786153
aa(lp33
F0.06724711602673457
aF-0.024424151595747547
aF-0.24879206752603553
aF0.9659108620059286
aabg9
I01
tp34
a(g1
(g2
g3
Ntp35
Rp36
(lp37
(lp38
F0.7516047701464444
aF-0.396628417827002
aF1.0233668042909494
aa(lp39
F0.022581489611251754
aF-0.1959619262049236
aF-0.2285421731268314
aF0.953340167467761
aabg9
I01
tp40
a.