(lp0
(ccopy_reg
_reconstructor
p1
(cgeometry_msgs.msg._Pose
Pose
p2
c__builtin__
object
p3
Ntp4
Rp5
(lp6
(lp7
F0.4143458013140697
aF0.5692329995359233
aF0.9226520142119863
aa(lp8
F-0.5320632602492835
aF-0.23522500662590437
aF0.005657770843796657
aF0.8133547030538555
aabS'base_link'
p9
I00
tp10
a(g1
(g2
g3
Ntp11
Rp12
(lp13
g1
(cgeometry_msgs.msg._Point
Point
p14
g3
Ntp15
Rp16
(lp17
cnumpy.core.multiarray
scalar
p18
(cnumpy
dtype
p19
(S'f8'
p20
I0
I1
tp21
Rp22
(I3
S'<'
p23
NNNI-1
I-1
I0
tp24
bS'\xd4U\x9a\x9a\xd0\x8d\xc7\xbf'
p25
tp26
Rp27
ag18
(g22
S'\xd03\xad\x89\xb0\xae\xd8?'
p28
tp29
Rp30
ag18
(g22
S'\xee@\xa8\x1f\t\x99\xd1?'
p31
tp32
Rp33
abag1
(cgeometry_msgs.msg._Quaternion
Quaternion
p34
g3
Ntp35
Rp36
(lp37
g18
(g22
S'U\x1b\x14D\xe4\x9a\xe6\xbf'
p38
tp39
Rp40
ag18
(g22
S'\x9fO\xc5\xb0\x01\xfe\x90?'
p41
tp42
Rp43
ag18
(g22
S'\x19\xe5\x1c\xf5\xb5\xf5\x8c\xbf'
p44
tp45
Rp46
ag18
(g22
S'\xee\x9bU\xc4\x96\xa3\xe6?'
p47
tp48
Rp49
ababS'table'
p50
I00
tp51
a.