(lp0
(ccopy_reg
_reconstructor
p1
(cgeometry_msgs.msg._Pose
Pose
p2
c__builtin__
object
p3
Ntp4
Rp5
(lp6
(lp7
F0.8353815596493434
aF-0.08622450815795034
aF1.3964118545230764
aa(lp8
F-0.9296615655567144
aF0.10226064975041389
aF-0.35249924332696925
aF-0.0318812875081325
aabS'base_link'
p9
I00
tp10
a.