(lp0
(ccopy_reg
_reconstructor
p1
(cgeometry_msgs.msg._Pose
Pose
p2
c__builtin__
object
p3
Ntp4
Rp5
(lp6
(lp7
F0.5572444825431669
aF0.04080894507641541
aF1.3613400266893692
aa(lp8
F0.38501902752513084
aF-0.6296906723932671
aF0.3982657009155793
aF0.5446415674723516
aabS'base_link'
p9
I00
tp10
a(g1
(g2
g3
Ntp11
Rp12
(lp13
(lp14
F0.3746129225652333
aF0.6224226740701831
aF1.3375300232743568
aa(lp15
F0.10333009308969338
aF0.370583825527259
aF-0.20783527708669441
aF-0.8993303162453463
aabg9
I00
tp16
a.