(lp0
(ccopy_reg
_reconstructor
p1
(cgeometry_msgs.msg._Pose
Pose
p2
c__builtin__
object
p3
Ntp4
Rp5
(lp6
(lp7
F0.6409975319161199
aF-0.015840021284280643
aF1.3947858661655073
aa(lp8
F0.48179308378641794
aF-0.5735014446285011
aF0.29372194180191746
aF0.5938846170163925
aabS'base_link'
p9
I00
tp10
a(g1
(g2
g3
Ntp11
Rp12
(lp13
(lp14
F0.7660698894519875
aF0.26549839838102385
aF1.303903271440898
aa(lp15
F0.3578640888465796
aF-0.2689862473218626
aF0.2761780456047934
aF0.8504736208675885
aabg9
I00
tp16
a(g1
(g2
g3
Ntp17
Rp18
(lp19
(lp20
F0.41528524983209064
aF0.5682444478265694
aF0.9230141763941653
aa(lp21
F-0.5349410022437141
aF-0.22995915107520543
aF-0.0006302868318926387
aF0.8129923220386347
aabg9
I00
tp22
a(g1
(g2
g3
Ntp23
Rp24
(lp25
g1
(cgeometry_msgs.msg._Point
Point
p26
g3
Ntp27
Rp28
(lp29
cnumpy.core.multiarray
scalar
p30
(cnumpy
dtype
p31
(S'f8'
p32
I0
I1
tp33
Rp34
(I3
S'<'
p35
NNNI-1
I-1
I0
tp36
bS'\xe7\x15\xf3\xdex\xcb\xdf\xbf'
p37
tp38
Rp39
ag30
(g34
S'Z\xe7\xac\xfc\xc8\x8e\xdf\xbf'
p40
tp41
Rp42
ag30
(g34
S'\x00\xc0%H\xdd\xc6\x98\xbf'
p43
tp44
Rp45
abag1
(cgeometry_msgs.msg._Quaternion
Quaternion
p46
g3
Ntp47
Rp48
(lp49
g30
(g34
S'\x1f\xb24\x07\xc5e\xdd\xbf'
p50
tp51
Rp52
ag30
(g34
S'\xd4\xcfwm(\x06\xde\xbf'
p53
tp54
Rp55
ag30
(g34
S'D\x969\xf5\x19\xb5\xe0?'
p56
tp57
Rp58
ag30
(g34
S'\xbc\xf6U\xa3sk\xe1?'
p59
tp60
Rp61
ababS'table'
p62
I00
tp63
a.