(lp0
(ccopy_reg
_reconstructor
p1
(cgeometry_msgs.msg._Pose
Pose
p2
c__builtin__
object
p3
Ntp4
Rp5
(lp6
(lp7
F0.7039943836482537
aF-0.13586715078003553
aF1.3703143241910078
aa(lp8
F-0.7759297870998112
aF-0.3387898342195597
aF-0.09037050382168096
aF0.5243925874378285
aabS'base_link'
p9
I00
tp10
a(g1
(g2
g3
Ntp11
Rp12
(lp13
(lp14
F0.9004357060990482
aF0.2993677104522063
aF1.1517219045382403
aa(lp15
F0.9667295128494106
aF0.20553706165599073
aF-0.028539560266211697
aF-0.14957960680378168
aabg9
I00
tp16
a(g1
(g2
g3
Ntp17
Rp18
(lp19
(lp20
F0.877066994051537
aF0.3610122339802016
aF1.0037806513248668
aa(lp21
F0.9547794441602269
aF0.2579098218900949
aF-0.06164884477651022
aF-0.1344550360508269
aabg9
I00
tp22
a(g1
(g2
g3
Ntp23
Rp24
(lp25
(lp26
F0.8744052106536362
aF0.2938127044903501
aF0.8974718494789569
aa(lp27
F-0.929260397133961
aF-0.145536727253005
aF0.04140154225190899
aF0.3370164501001109
aabg9
I01
tp28
a(g1
(g2
g3
Ntp29
Rp30
(lp31
(lp32
F0.9246254327472581
aF0.09250942278841498
aF0.9423826669116826
aa(lp33
F0.9668951168313045
aF0.1290149257871249
aF-0.11576077594178322
aF-0.18726565281780236
aabg9
I01
tp34
a(g1
(g2
g3
Ntp35
Rp36
(lp37
(lp38
F0.8933110388038219
aF-0.17182217670590283
aF0.896660140095572
aa(lp39
F0.9528883461393917
aF0.02481318553178899
aF0.0035726972172143772
aF-0.3022835447888187
aabg9
I01
tp40
a(g1
(g2
g3
Ntp41
Rp42
(lp43
(lp44
F0.7989217393519915
aF-0.4370089373116597
aF0.9285592165703204
aa(lp45
F0.9829723863593742
aF-0.07653142258676277
aF0.016605980145711265
aF-0.16623017305893564
aabg9
I01
tp46
a(g1
(g2
g3
Ntp47
Rp48
(lp49
(lp50
F0.8107402507960865
aF-0.44689599379082523
aF1.0226888290748035
aa(lp51
F0.9865441420289555
aF-0.06780176758545672
aF0.06747912365192923
aF-0.13259013542419798
aabg9
I00
tp52
a.