(lp0
(ccopy_reg
_reconstructor
p1
(cgeometry_msgs.msg._Pose
Pose
p2
c__builtin__
object
p3
Ntp4
Rp5
(lp6
(lp7
F0.6681425864317209
aF0.0036859002727418974
aF1.280513328181002
aa(lp8
F-0.8601787975519084
aF-0.20225298887759685
aF-0.46686667221649314
aF0.03495246923651098
aabS'base_link'
p9
I00
tp10
a(g1
(g2
g3
Ntp11
Rp12
(lp13
(lp14
F0.6734473803068948
aF0.3267446182524181
aF1.124549535480297
aa(lp15
F-0.8327441862220454
aF-0.16926414255189154
aF-0.06396858117263657
aF0.5232540405790633
aabg9
I00
tp16
a(g1
(g2
g3
Ntp17
Rp18
(lp19
(lp20
F0.7003445939132344
aF0.40100962639843263
aF0.9725693296353088
aa(lp21
F-0.9728255723443545
aF-0.10954850991570901
aF0.023872957020972665
aF0.20258235779850445
aabg9
I00
tp22
a(g1
(g2
g3
Ntp23
Rp24
(lp25
(lp26
F0.7010886851742396
aF0.3338740495150923
aF0.9305389882284586
aa(lp27
F-0.9492762629036844
aF-0.06812059890687695
aF0.04987968029557972
aF0.3028963159000041
aabg9
I00
tp28
a(g1
(g2
g3
Ntp29
Rp30
(lp31
(lp32
F0.6782438345510068
aF0.06718419002815414
aF0.8995781837114257
aa(lp33
F-0.9733862300355617
aF-0.06390615181147624
aF-0.026703602399489434
aF0.21845404220726966
aabg9
I01
tp34
a(g1
(g2
g3
Ntp35
Rp36
(lp37
(lp38
F0.6333826995562655
aF-0.23052291594003124
aF0.8891803620047692
aa(lp39
F-0.9552573832192793
aF0.010865199735401952
aF-0.07893247542908521
aF0.2848419624325069
aabg9
I01
tp40
a(g1
(g2
g3
Ntp41
Rp42
(lp43
(lp44
F0.5953327747399809
aF-0.4317369450083208
aF0.8989393553309679
aa(lp45
F-0.9728748343002954
aF0.10636650063851083
aF-0.08960801424162797
aF0.18485434295889033
aabg9
I01
tp46
a(g1
(g2
g3
Ntp47
Rp48
(lp49
(lp50
F0.5436867543648203
aF-0.4774515476038743
aF1.0225716355106358
aa(lp51
F-0.9423113908999889
aF0.1304307631407744
aF-0.24026276604009925
aF0.19316019740465043
aabg9
I00
tp52
a.