(lp0
(ccopy_reg
_reconstructor
p1
(cgeometry_msgs.msg._Pose
Pose
p2
c__builtin__
object
p3
Ntp4
Rp5
(lp6
(lp7
F0.16264128175714948
aF0.769803309137256
aF1.021224627860319
aa(lp8
F0.1327637260431588
aF-0.16506049635069475
aF0.5076947816566555
aF0.8350897163001114
aabS'base_link'
p9
I00
tp10
a(g1
(g2
g3
Ntp11
Rp12
(lp13
g1
(cgeometry_msgs.msg._Point
Point
p14
g3
Ntp15
Rp16
(lp17
cnumpy.core.multiarray
scalar
p18
(cnumpy
dtype
p19
(S'f8'
p20
I0
I1
tp21
Rp22
(I3
S'<'
p23
NNNI-1
I-1
I0
tp24
bS'd\x08)$1\xae\xca\xbf'
p25
tp26
Rp27
ag18
(g22
S'\xe6\x11o\x0el=\xdd?'
p28
tp29
Rp30
ag18
(g22
S'\x8co\x9c\xd5\xd5N\xcd?'
p31
tp32
Rp33
abag1
(cgeometry_msgs.msg._Quaternion
Quaternion
p34
g3
Ntp35
Rp36
(lp37
g18
(g22
S'\xfd\xbc\x00v&\xcb\xa6?'
p38
tp39
Rp40
ag18
(g22
S'?\xbf\x9c\x0e\x1b#j?'
p41
tp42
Rp43
ag18
(g22
S'n\x95M/\x93\x1c\x92?'
p44
tp45
Rp46
ag18
(g22
S'\xd2\xd9I\xb7\x8d\xf6\xef?'
p47
tp48
Rp49
ababS'table'
p50
I00
tp51
a.